target datalayout = "e-m:e-p270:32:32-p271:32:32-p272:64:64-i64:64-i128:128-f80:128-n8:16:32:64-S128"
target triple = "x86_64-unknown-linux-gnu"

%class.aiQuaterniont = type { float, float, float, float }
%class.aiVector3t = type { float, float, float }

; Function Attrs: mustprogress nounwind uwtable
define linkonce_odr noundef float @_ZSt4sqrtf(float noundef %__x) #0 comdat {
entry:
  %__x.addr = alloca float, align 4
  store float %__x, ptr %__x.addr, align 4
  %0 = load float, ptr %__x.addr, align 4
  %call = call float @sqrtf(float noundef %0) #3
  ret float %call
}

; Function Attrs: mustprogress nounwind uwtable
define linkonce_odr hidden noundef float @_ZNK10aiVector3tIfE12SquareLengthEv(ptr noundef nonnull align 4 dereferenceable(12) %this) #0 comdat align 2 {
entry:
  %this.addr = alloca ptr, align 8
  store ptr %this, ptr %this.addr, align 8
  %this1 = load ptr, ptr %this.addr, align 8
  %x = getelementptr inbounds %class.aiVector3t, ptr %this1, i32 0, i32 0
  %0 = load float, ptr %x, align 4
  %x2 = getelementptr inbounds %class.aiVector3t, ptr %this1, i32 0, i32 0
  %1 = load float, ptr %x2, align 4
  %y = getelementptr inbounds %class.aiVector3t, ptr %this1, i32 0, i32 1
  %2 = load float, ptr %y, align 4
  %y3 = getelementptr inbounds %class.aiVector3t, ptr %this1, i32 0, i32 1
  %3 = load float, ptr %y3, align 4
  %mul4 = fmul float %2, %3
  %4 = call float @llvm.fmuladd.f32(float %0, float %1, float %mul4)
  %z = getelementptr inbounds %class.aiVector3t, ptr %this1, i32 0, i32 2
  %5 = load float, ptr %z, align 4
  %z5 = getelementptr inbounds %class.aiVector3t, ptr %this1, i32 0, i32 2
  %6 = load float, ptr %z5, align 4
  %7 = call float @llvm.fmuladd.f32(float %5, float %6, float %4)
  ret float %7
}

; Function Attrs: mustprogress nounwind uwtable
define linkonce_odr hidden noundef nonnull align 4 dereferenceable(12) ptr @_ZN10aiVector3tIfEdVEf(ptr noundef nonnull align 4 dereferenceable(12) %this, float noundef %f) #0 comdat align 2 {
entry:
  %retval = alloca ptr, align 8
  %this.addr = alloca ptr, align 8
  %f.addr = alloca float, align 4
  %invF = alloca float, align 4
  store ptr %this, ptr %this.addr, align 8
  store float %f, ptr %f.addr, align 4
  %this1 = load ptr, ptr %this.addr, align 8
  %0 = load float, ptr %f.addr, align 4
  %cmp = fcmp oeq float %0, 0.000000e+00
  br i1 %cmp, label %if.then, label %if.end

if.then:                                          ; preds = %entry
  store ptr %this1, ptr %retval, align 8
  br label %return

if.end:                                           ; preds = %entry
  %1 = load float, ptr %f.addr, align 4
  %div = fdiv float 1.000000e+00, %1
  store float %div, ptr %invF, align 4
  %2 = load float, ptr %invF, align 4
  %x = getelementptr inbounds %class.aiVector3t, ptr %this1, i32 0, i32 0
  %3 = load float, ptr %x, align 4
  %mul = fmul float %3, %2
  store float %mul, ptr %x, align 4
  %4 = load float, ptr %invF, align 4
  %y = getelementptr inbounds %class.aiVector3t, ptr %this1, i32 0, i32 1
  %5 = load float, ptr %y, align 4
  %mul2 = fmul float %5, %4
  store float %mul2, ptr %y, align 4
  %6 = load float, ptr %invF, align 4
  %z = getelementptr inbounds %class.aiVector3t, ptr %this1, i32 0, i32 2
  %7 = load float, ptr %z, align 4
  %mul3 = fmul float %7, %6
  store float %mul3, ptr %z, align 4
  store ptr %this1, ptr %retval, align 8
  br label %return

return:                                           ; preds = %if.end, %if.then
  %8 = load ptr, ptr %retval, align 8
  ret ptr %8
}

; Function Attrs: mustprogress uwtable
define linkonce_odr hidden noundef float @_ZNK10aiVector3tIfE6LengthEv(ptr noundef nonnull align 4 dereferenceable(12) %this) #5 comdat align 2 {
entry:
  %this.addr = alloca ptr, align 8
  store ptr %this, ptr %this.addr, align 8
  %this1 = load ptr, ptr %this.addr, align 8
  %call = call noundef float @_ZNK10aiVector3tIfE12SquareLengthEv(ptr noundef nonnull align 4 dereferenceable(12) %this1)
  %call2 = call noundef float @_ZSt4sqrtf(float noundef %call)
  ret float %call2
}

; Function Attrs: mustprogress nounwind uwtable
define linkonce_odr noundef float @_ZSt3cosf(float noundef %__x) #0 comdat {
entry:
  %__x.addr = alloca float, align 4
  store float %__x, ptr %__x.addr, align 4
  %0 = load float, ptr %__x.addr, align 4
  %call = call float @cosf(float noundef %0) #3
  ret float %call
}

; Function Attrs: mustprogress nounwind uwtable
define linkonce_odr noundef float @_ZSt3sinf(float noundef %__x) #0 comdat {
entry:
  %__x.addr = alloca float, align 4
  store float %__x, ptr %__x.addr, align 4
  %0 = load float, ptr %__x.addr, align 4
  %call = call float @sinf(float noundef %0) #3
  ret float %call
}

; Function Attrs: mustprogress uwtable
define linkonce_odr hidden noundef nonnull align 4 dereferenceable(12) ptr @_ZN10aiVector3tIfE9NormalizeEv(ptr noundef nonnull align 4 dereferenceable(12) %this) #5 comdat align 2 {
entry:
  %retval = alloca ptr, align 8
  %this.addr = alloca ptr, align 8
  %l = alloca float, align 4
  store ptr %this, ptr %this.addr, align 8
  %this1 = load ptr, ptr %this.addr, align 8
  %call = call noundef float @_ZNK10aiVector3tIfE6LengthEv(ptr noundef nonnull align 4 dereferenceable(12) %this1)
  store float %call, ptr %l, align 4
  %0 = load float, ptr %l, align 4
  %cmp = fcmp oeq float %0, 0.000000e+00
  br i1 %cmp, label %if.then, label %if.end

if.then:                                          ; preds = %entry
  store ptr %this1, ptr %retval, align 8
  br label %return

if.end:                                           ; preds = %entry
  %call2 = call noundef float @_ZNK10aiVector3tIfE6LengthEv(ptr noundef nonnull align 4 dereferenceable(12) %this1)
  %call3 = call noundef nonnull align 4 dereferenceable(12) ptr @_ZN10aiVector3tIfEdVEf(ptr noundef nonnull align 4 dereferenceable(12) %this1, float noundef %call2)
  store ptr %this1, ptr %retval, align 8
  br label %return

return:                                           ; preds = %if.end, %if.then
  %1 = load ptr, ptr %retval, align 8
  ret ptr %1
}

; Function Attrs: mustprogress uwtable
define linkonce_odr hidden void @_ZN13aiQuaterniontIfEC2E10aiVector3tIfEf(ptr noundef nonnull align 4 dereferenceable(16) %this, <2 x float> %axis.coerce0, float %axis.coerce1, float noundef %angle) unnamed_addr #12 comdat align 2 {
entry:
  %axis = alloca %class.aiVector3t, align 4
  %coerce = alloca { <2 x float>, float }, align 4
  %this.addr = alloca ptr, align 8
  %angle.addr = alloca float, align 4
  %sin_a = alloca float, align 4
  %cos_a = alloca float, align 4
  %0 = getelementptr inbounds { <2 x float>, float }, ptr %coerce, i32 0, i32 0
  store <2 x float> %axis.coerce0, ptr %0, align 4
  %1 = getelementptr inbounds { <2 x float>, float }, ptr %coerce, i32 0, i32 1
  store float %axis.coerce1, ptr %1, align 4
  call void @llvm.memcpy.p0.p0.i64(ptr align 4 %axis, ptr align 4 %coerce, i64 12, i1 false)
  store ptr %this, ptr %this.addr, align 8
  store float %angle, ptr %angle.addr, align 4
  %this1 = load ptr, ptr %this.addr, align 8
  %call = call noundef nonnull align 4 dereferenceable(12) ptr @_ZN10aiVector3tIfE9NormalizeEv(ptr noundef nonnull align 4 dereferenceable(12) %axis)
  %2 = load float, ptr %angle.addr, align 4
  %div = fdiv float %2, 2.000000e+00
  %call2 = call noundef float @_ZSt3sinf(float noundef %div)
  store float %call2, ptr %sin_a, align 4
  %3 = load float, ptr %angle.addr, align 4
  %div3 = fdiv float %3, 2.000000e+00
  %call4 = call noundef float @_ZSt3cosf(float noundef %div3)
  store float %call4, ptr %cos_a, align 4
  %x = getelementptr inbounds %class.aiVector3t, ptr %axis, i32 0, i32 0
  %4 = load float, ptr %x, align 4
  %5 = load float, ptr %sin_a, align 4
  %mul = fmul float %4, %5
  %x5 = getelementptr inbounds %class.aiQuaterniont, ptr %this1, i32 0, i32 1
  store float %mul, ptr %x5, align 4
  %y = getelementptr inbounds %class.aiVector3t, ptr %axis, i32 0, i32 1
  %6 = load float, ptr %y, align 4
  %7 = load float, ptr %sin_a, align 4
  %mul6 = fmul float %6, %7
  %y7 = getelementptr inbounds %class.aiQuaterniont, ptr %this1, i32 0, i32 2
  store float %mul6, ptr %y7, align 4
  %z = getelementptr inbounds %class.aiVector3t, ptr %axis, i32 0, i32 2
  %8 = load float, ptr %z, align 4
  %9 = load float, ptr %sin_a, align 4
  %mul8 = fmul float %8, %9
  %z9 = getelementptr inbounds %class.aiQuaterniont, ptr %this1, i32 0, i32 3
  store float %mul8, ptr %z9, align 4
  %10 = load float, ptr %cos_a, align 4
  %w = getelementptr inbounds %class.aiQuaterniont, ptr %this1, i32 0, i32 0
  store float %10, ptr %w, align 4
  ret void
}

; Function Attrs: mustprogress uwtable
define void @aiQuaternionFromAxisAngle(ptr noundef %q, ptr noundef %axis, float noundef %angle) #12 {
entry:
  %q.addr = alloca ptr, align 8
  %axis.addr = alloca ptr, align 8
  %angle.addr = alloca float, align 4
  %ref.tmp = alloca %class.aiQuaterniont, align 4
  %agg.tmp = alloca %class.aiVector3t, align 4
  %agg.tmp.coerce = alloca { <2 x float>, float }, align 4
  store ptr %q, ptr %q.addr, align 8
  store ptr %axis, ptr %axis.addr, align 8
  store float %angle, ptr %angle.addr, align 4
  %0 = load ptr, ptr %axis.addr, align 8
  call void @llvm.memcpy.p0.p0.i64(ptr align 4 %agg.tmp, ptr align 4 %0, i64 12, i1 false)
  %1 = load float, ptr %angle.addr, align 4
  call void @llvm.memcpy.p0.p0.i64(ptr align 4 %agg.tmp.coerce, ptr align 4 %agg.tmp, i64 12, i1 false)
  %2 = getelementptr inbounds { <2 x float>, float }, ptr %agg.tmp.coerce, i32 0, i32 0
  %3 = load <2 x float>, ptr %2, align 4
  %4 = getelementptr inbounds { <2 x float>, float }, ptr %agg.tmp.coerce, i32 0, i32 1
  %5 = load float, ptr %4, align 4
  call void @_ZN13aiQuaterniontIfEC2E10aiVector3tIfEf(ptr noundef nonnull align 4 dereferenceable(16) %ref.tmp, <2 x float> %3, float %5, float noundef %1)
  %6 = load ptr, ptr %q.addr, align 8
  call void @llvm.memcpy.p0.p0.i64(ptr align 4 %6, ptr align 4 %ref.tmp, i64 16, i1 false)
  ret void
}