; Function Attrs: mustprogress nofree nounwind willreturn memory(write, argmem: readwrite) uwtable
define void @aiQuaternionFromAxisAngle(ptr nocapture noundef writeonly %q, ptr nocapture noundef readonly %axis, float noundef %angle) local_unnamed_addr #18 {
entry:
  %agg.tmp.sroa.0.0.copyload = load <2 x float>, ptr %axis, align 4
  %agg.tmp.sroa.2.0..sroa_idx = getelementptr inbounds i8, ptr %axis, i64 8
  %agg.tmp.sroa.2.0.copyload = load float, ptr %agg.tmp.sroa.2.0..sroa_idx, align 4
  %0 = fmul <2 x float> %agg.tmp.sroa.0.0.copyload, %agg.tmp.sroa.0.0.copyload
  %mul4.i.i.i.i = extractelement <2 x float> %0, i64 1
  %1 = extractelement <2 x float> %agg.tmp.sroa.0.0.copyload, i64 0
  %2 = tail call float @llvm.fmuladd.f32(float %1, float %1, float %mul4.i.i.i.i)
  %3 = tail call noundef float @llvm.fmuladd.f32(float %agg.tmp.sroa.2.0.copyload, float %agg.tmp.sroa.2.0.copyload, float %2)
  %sqrt.i.i.i = tail call noundef float @llvm.sqrt.f32(float %3)
  %cmp.i.i = fcmp oeq float %sqrt.i.i.i, 0.000000e+00
  %div.i.i.i = fdiv float 1.000000e+00, %sqrt.i.i.i
  %mul3.i.i.i = fmul float %agg.tmp.sroa.2.0.copyload, %div.i.i.i
  %axis.sroa.7.0.i = select i1 %cmp.i.i, float %agg.tmp.sroa.2.0.copyload, float %mul3.i.i.i
  %div.i = fmul float %angle, 5.000000e-01
  %call.i.i = tail call noundef float @sinf(float noundef %div.i) #44
  %call.i4.i = tail call noundef float @cosf(float noundef %div.i) #44
  %mul8.i = fmul float %call.i.i, %axis.sroa.7.0.i
  store float %call.i4.i, ptr %q, align 4
  %ref.tmp.sroa.2.0.q.sroa_idx = getelementptr inbounds i8, ptr %q, i64 4
  %4 = insertelement <2 x float> poison, float %div.i.i.i, i64 0
  %5 = shufflevector <2 x float> %4, <2 x float> poison, <2 x i32> zeroinitializer
  %6 = fmul <2 x float> %agg.tmp.sroa.0.0.copyload, %5
  %7 = insertelement <2 x i1> poison, i1 %cmp.i.i, i64 0
  %8 = shufflevector <2 x i1> %7, <2 x i1> poison, <2 x i32> zeroinitializer
  %9 = select <2 x i1> %8, <2 x float> %agg.tmp.sroa.0.0.copyload, <2 x float> %6
  %10 = insertelement <2 x float> poison, float %call.i.i, i64 0
  %11 = shufflevector <2 x float> %10, <2 x float> poison, <2 x i32> zeroinitializer
  %12 = fmul <2 x float> %11, %9
  store <2 x float> %12, ptr %ref.tmp.sroa.2.0.q.sroa_idx, align 4
  %ref.tmp.sroa.4.0.q.sroa_idx = getelementptr inbounds i8, ptr %q, i64 12
  store float %mul8.i, ptr %ref.tmp.sroa.4.0.q.sroa_idx, align 4
  ret void
}